Certificate:
    Data:
        Version: 3 (0x2)
        Serial Number: 1 (0x1)
    Signature Algorithm: sha256WithRSAEncryption
        Issuer: C=US, ST=WA, O=SUSE, OU=CaaSP, CN=less than 2048 bit key
        Validity
            Not Before: Jan 11 00:57:33 2019 GMT
            Not After : Oct 26 00:57:33 2292 GMT
        Subject: C=US, ST=WA, O=SUSE, OU=CaaSP, CN=less than 2048 bit key
        Subject Public Key Info:
            Public Key Algorithm: rsaEncryption
                Public-Key: (1024 bit)
                Modulus:
                    00:c8:2e:c0:71:8e:9d:97:f2:6e:83:b4:78:ed:85:
                    f5:fb:7f:18:cf:7c:cd:76:4b:8a:f6:3a:f5:6a:a5:
                    e2:1f:d6:43:59:70:54:b2:91:f6:dc:c2:4f:f6:21:
                    5a:0b:fa:e4:6d:81:f0:3e:fe:6d:26:62:e0:c1:10:
                    57:c5:1f:03:aa:c5:fa:8c:49:b5:bc:d7:f1:73:76:
                    8d:6d:a1:c9:2f:75:f4:e3:e6:e6:e3:b2:4d:5d:d9:
                    44:21:a2:20:53:52:69:39:52:fd:01:7c:d5:2f:1e:
                    d4:99:46:7e:6e:01:b5:d3:89:bb:82:1e:eb:6c:70:
                    7d:69:63:74:fc:ab:d4:72:f9
                Exponent: 65537 (0x10001)
        X509v3 extensions:
            X509v3 Subject Key Identifier: 
                07:B9:EE:57:D8:8A:2E:6C:4E:33:FA:CB:43:0F:BB:34:A4:46:88:D8
            X509v3 Authority Key Identifier: 
                keyid:07:B9:EE:57:D8:8A:2E:6C:4E:33:FA:CB:43:0F:BB:34:A4:46:88:D8

            X509v3 Basic Constraints: critical
                CA:TRUE
    Signature Algorithm: sha256WithRSAEncryption
         2d:f7:e6:5f:d3:88:2d:c9:89:7d:a4:61:c5:3f:2f:fd:d2:34:
         f3:9d:34:52:c4:d9:d1:c0:1e:f7:c4:80:9d:c6:ad:d0:25:67:
         d7:a4:36:93:35:0b:a5:63:5b:41:7a:66:eb:bc:3f:21:18:72:
         c3:3f:62:c0:76:19:4a:cc:52:72:7f:87:a4:87:6d:83:45:39:
         52:3c:41:b6:35:70:58:88:42:f2:67:27:8a:5a:7d:56:e9:0d:
         41:39:68:c2:2c:1e:5f:a6:86:52:2d:eb:f8:d9:72:03:01:90:
         00:51:2f:86:5b:dc:11:72:80:44:96:83:c7:37:fa:41:f8:6a:
         17:d4
-----BEGIN CERTIFICATE-----
MIICfzCCAeigAwIBAgIBATANBgkqhkiG9w0BAQsFADBaMQswCQYDVQQGEwJVUzEL
MAkGA1UECAwCV0ExDTALBgNVBAoMBFNVU0UxDjAMBgNVBAsMBUNhYVNQMR8wHQYD
VQQDDBZsZXNzIHRoYW4gMjA0OCBiaXQga2V5MCAXDTE5MDExMTAwNTczM1oYDzIy
OTIxMDI2MDA1NzMzWjBaMQswCQYDVQQGEwJVUzELMAkGA1UECAwCV0ExDTALBgNV
BAoMBFNVU0UxDjAMBgNVBAsMBUNhYVNQMR8wHQYDVQQDDBZsZXNzIHRoYW4gMjA0
OCBiaXQga2V5MIGfMA0GCSqGSIb3DQEBAQUAA4GNADCBiQKBgQDILsBxjp2X8m6D
tHjthfX7fxjPfM12S4r2OvVqpeIf1kNZcFSykfbcwk/2IVoL+uRtgfA+/m0mYuDB
EFfFHwOqxfqMSbW81/Fzdo1tockvdfTj5ubjsk1d2UQhoiBTUmk5Uv0BfNUvHtSZ
Rn5uAbXTibuCHutscH1pY3T8q9Ry+QIDAQABo1MwUTAdBgNVHQ4EFgQUB7nuV9iK
LmxOM/rLQw+7NKRGiNgwHwYDVR0jBBgwFoAUB7nuV9iKLmxOM/rLQw+7NKRGiNgw
DwYDVR0TAQH/BAUwAwEB/zANBgkqhkiG9w0BAQsFAAOBgQAt9+Zf04gtyYl9pGHF
Py/90jTznTRSxNnRwB73xICdxq3QJWfXpDaTNQulY1tBembrvD8hGHLDP2LAdhlK
zFJyf4ekh22DRTlSPEG2NXBYiELyZyeKWn1W6Q1BOWjCLB5fpoZSLev42XIDAZAA
US+GW9wRcoBEloPHN/pB+GoX1A==
-----END CERTIFICATE-----
