Certificate:
    Data:
        Version: 3 (0x2)
        Serial Number: 10 (0xa)
    Signature Algorithm: sha256WithRSAEncryption
        Issuer: O=US3, OU=US3 Unit, CN=US3
        Validity
            Not Before: Jan 29 18:07:51 2019 GMT
            Not After : Jan 30 18:07:51 2024 GMT
        Subject: ST=WA, O=Test, OU=Test Unit, CN=badalt, CN=test.com
        Subject Public Key Info:
            Public Key Algorithm: rsaEncryption
                Public-Key: (2048 bit)
                Modulus:
                    00:bf:8a:50:9e:0f:48:c2:f1:04:82:95:db:c6:a0:
                    14:a7:e0:f9:86:f5:3c:f5:e1:43:f0:11:ef:d1:b7:
                    07:e5:cb:53:cb:b1:21:77:2e:6d:67:99:f6:eb:4e:
                    51:04:6c:cf:df:6c:ce:d1:ff:41:1a:1c:bc:88:92:
                    9c:56:6a:99:b4:68:9f:34:99:0a:93:b2:be:74:1e:
                    e0:92:32:bc:50:17:7c:4a:fe:73:ca:47:3f:da:96:
                    ae:46:44:32:46:3f:9e:23:94:79:3f:aa:67:4a:e5:
                    3b:a0:fc:e1:94:a0:90:ad:9e:4d:ab:34:eb:20:71:
                    36:81:61:87:68:d1:e4:63:7e:ef:e4:b0:eb:00:66:
                    dd:f8:8d:94:ec:cb:f1:08:42:6d:7b:3d:d9:8c:79:
                    86:04:6d:c3:c2:7b:25:43:7b:23:2a:bc:9d:36:cb:
                    22:53:c6:6b:02:c5:c5:7b:79:c3:c6:5d:c8:a9:30:
                    5a:2d:b6:92:b7:15:cd:6e:8f:3a:47:16:fc:90:10:
                    38:56:af:48:ee:14:13:86:92:29:31:de:16:3a:89:
                    18:1d:99:dd:8c:ea:59:c7:fe:59:d4:9f:a4:d0:07:
                    6a:a7:c5:91:3f:82:3a:5c:e4:f7:c9:df:a7:5d:b5:
                    65:b4:76:91:a3:f2:df:94:09:0f:17:10:59:a3:f7:
                    3f:99
                Exponent: 65537 (0x10001)
        X509v3 extensions:
            X509v3 Subject Alternative Name: 
                DNS:test.com, DNS:blah.com, IP Address:127.0.0.1, IP Address:13:0:0:0:0:0:0:17
    Signature Algorithm: sha256WithRSAEncryption
         5c:7f:cd:d0:6c:88:cf:dd:4b:42:0f:eb:92:b4:f9:79:37:3a:
         03:44:22:ee:1f:4c:ca:31:81:b1:23:c2:69:fd:33:ff:19:c1:
         12:ca:8e:0a:94:7e:70:7f:97:b5:26:d4:f8:b9:77:fe:c4:0e:
         0c:e8:5c:ca:4a:51:c0:c6:9b:89:31:1c:db:a7:5c:bd:b6:6d:
         5b:e4:1f:40:ef:4e:9e:66:82:dc:8f:22:7b:b2:50:44:43:62:
         85:1d:e3:b6:3a:ae:35:57:e7:63:9e:64:0e:68:66:fa:85:15:
         bb:37:d7:bc:d1:2c:ec:ae:fb:a3:c7:fe:f8:10:d8:55:24:69:
         f3:56:03:c0:ca:17:15:bc:14:88:bf:c0:c8:91:f8:70:3b:0e:
         1f:1b:75:ee:e4:73:87:89:eb:38:37:9e:0a:d6:73:72:6c:27:
         c2:9b:b4:a1:20:67:7e:5d:7e:90:34:d8:75:d1:60:3e:19:11:
         63:bd:a2:35:33:0a:7b:26:8d:91:57:95:ad:15:e9:90:5b:50:
         f3:8d:cf:d1:45:b4:48:1a:05:98:cf:e9:d2:80:e5:6d:99:7a:
         88:ab:7f:f9:13:b1:5e:dc:f5:8c:b3:c2:5f:2c:a9:00:13:4d:
         cb:b1:53:30:c7:77:22:1e:01:c9:5e:64:73:bb:7d:25:28:1c:
         74:c6:64:8a
-----BEGIN CERTIFICATE-----
MIIDOzCCAiOgAwIBAgIBCjANBgkqhkiG9w0BAQsFADAvMQwwCgYDVQQKDANVUzMx
ETAPBgNVBAsMCFVTMyBVbml0MQwwCgYDVQQDDANVUzMwIhgPMjAxOTAxMjkxODA3
NTFaGA8yMDI0MDEzMDE4MDc1MVowVDELMAkGA1UECAwCV0ExDTALBgNVBAoMBFRl
c3QxEjAQBgNVBAsMCVRlc3QgVW5pdDEPMA0GA1UEAwwGYmFkYWx0MREwDwYDVQQD
DAh0ZXN0LmNvbTCCASIwDQYJKoZIhvcNAQEBBQADggEPADCCAQoCggEBAL+KUJ4P
SMLxBIKV28agFKfg+Yb1PPXhQ/AR79G3B+XLU8uxIXcubWeZ9utOUQRsz99sztH/
QRocvIiSnFZqmbRonzSZCpOyvnQe4JIyvFAXfEr+c8pHP9qWrkZEMkY/niOUeT+q
Z0rlO6D84ZSgkK2eTas06yBxNoFhh2jR5GN+7+Sw6wBm3fiNlOzL8QhCbXs92Yx5
hgRtw8J7JUN7Iyq8nTbLIlPGawLFxXt5w8ZdyKkwWi22krcVzW6POkcW/JAQOFav
SO4UE4aSKTHeFjqJGB2Z3YzqWcf+WdSfpNAHaqfFkT+COlzk98nfp121ZbR2kaPy
35QJDxcQWaP3P5kCAwEAAaM5MDcwNQYDVR0RBC4wLIIIdGVzdC5jb22CCGJsYWgu
Y29thwR/AAABhxAAEwAAAAAAAAAAAAAAAAAXMA0GCSqGSIb3DQEBCwUAA4IBAQBc
f83QbIjP3UtCD+uStPl5NzoDRCLuH0zKMYGxI8Jp/TP/GcESyo4KlH5wf5e1JtT4
uXf+xA4M6FzKSlHAxpuJMRzbp1y9tm1b5B9A706eZoLcjyJ7slBEQ2KFHeO2Oq41
V+djnmQOaGb6hRW7N9e80Szsrvujx/74ENhVJGnzVgPAyhcVvBSIv8DIkfhwOw4f
G3Xu5HOHies4N54K1nNybCfCm7ShIGd+XX6QNNh10WA+GRFjvaI1Mwp7Jo2RV5Wt
FemQW1Dzjc/RRbRIGgWYz+nSgOVtmXqIq3/5E7Fe3PWMs8JfLKkAE03LsVMwx3ci
HgHJXmRzu30lKBx0xmSK
-----END CERTIFICATE-----
