Certificate:
    Data:
        Version: 3 (0x2)
        Serial Number: 1 (0x1)
    Signature Algorithm: sha256WithRSAEncryption
        Issuer: O=US2, OU=US2 Unit, CN=US2
        Validity
            Not Before: Jan 30 18:07:50 2019 GMT
            Not After : Jan 30 18:07:50 2020 GMT
        Subject: O=US3, OU=US3 Unit, CN=US3
        Subject Public Key Info:
            Public Key Algorithm: rsaEncryption
                Public-Key: (2048 bit)
                Modulus:
                    00:ab:63:e2:12:47:97:66:5c:bb:1d:47:07:bd:9c:
                    02:87:01:9d:cf:ec:ef:70:8c:65:c3:ea:6c:c5:8b:
                    01:bc:12:ec:54:8c:db:db:ad:77:af:ff:67:cf:f8:
                    f9:44:d3:c4:01:f5:fb:79:21:54:23:a9:94:a7:80:
                    9f:c8:0f:75:08:fc:73:0e:4d:b5:64:9a:a7:07:56:
                    33:bb:3a:d7:d2:85:f1:2d:8c:d6:fb:d0:54:0c:d9:
                    1a:74:c7:3f:2a:1a:49:73:b5:66:08:1b:bd:39:35:
                    36:97:17:75:51:d8:10:52:00:9d:21:48:39:e4:5f:
                    c2:c6:96:58:ee:35:56:a1:e6:f9:c8:f9:37:63:1d:
                    d9:2c:ca:ce:bd:3b:5f:75:3d:13:6a:0a:e9:85:9d:
                    cc:bc:7e:41:6e:85:b4:c9:72:37:a8:d9:0e:ff:81:
                    cb:b2:f5:cf:32:90:54:4a:a3:f6:d0:85:db:0e:80:
                    bb:91:3c:b2:1c:20:44:9b:39:59:6f:45:14:9b:d8:
                    ed:30:cb:3f:b7:af:12:a9:d7:d1:94:05:49:d2:7e:
                    bf:9f:d2:3b:75:e9:ed:70:00:5c:5f:0d:6d:54:2a:
                    a0:58:83:a9:a8:27:bf:64:ee:99:f1:b8:44:73:5b:
                    cb:52:8c:33:5a:d9:e5:6f:2d:d8:82:92:7b:2a:92:
                    d4:e9
                Exponent: 65537 (0x10001)
        X509v3 extensions:
            X509v3 Subject Key Identifier: 
                13:27:F2:54:D8:70:95:FC:13:28:2E:6B:A7:3B:C6:85:A2:B3:31:4F
            X509v3 Authority Key Identifier: 
                keyid:48:F6:EE:BF:8E:A2:DD:70:44:70:5D:EF:12:CF:F9:1F:6A:AA:A1:D6

            X509v3 Basic Constraints: critical
                CA:TRUE
    Signature Algorithm: sha256WithRSAEncryption
         6e:a2:5c:cd:28:ec:75:5a:9e:16:67:4e:2d:f3:07:1b:13:e8:
         8e:f0:5b:3f:48:8d:df:34:43:1c:47:91:da:48:67:19:07:32:
         0e:93:63:cd:5f:30:d3:b4:9d:d5:db:39:d2:73:c4:a0:52:b7:
         a6:19:47:37:27:9a:c9:bc:f7:ee:4a:f6:ce:f3:9c:4f:30:bb:
         66:f8:e0:ed:77:1f:c4:32:98:17:12:c8:be:f1:e5:11:18:bc:
         32:09:22:48:5b:16:28:da:73:61:3d:e9:05:72:af:09:16:b7:
         85:32:a6:9b:86:9d:7a:0e:48:eb:a7:40:60:92:9a:31:6c:8d:
         dd:25:a9:2f:7a:3b:22:c2:b6:d4:00:47:34:6a:e6:4b:e0:d8:
         b5:e5:40:35:07:98:94:2b:bf:08:6d:88:5c:35:40:f6:d6:ee:
         f8:64:7c:de:32:61:f2:74:e9:a2:90:ad:44:98:7e:45:c7:8d:
         e8:7e:05:6c:9a:29:ef:b4:3f:14:28:37:2b:de:3b:c7:af:54:
         40:a1:9f:0d:1f:ad:29:91:9c:03:48:f0:ff:da:1c:5e:5e:3f:
         be:cb:18:5d:9a:a5:4b:dc:bf:27:a9:43:66:d6:53:b2:46:60:
         2e:5b:9c:a8:3e:94:eb:d9:44:78:60:32:14:61:fb:ba:26:08:
         af:0e:0c:7b
-----BEGIN CERTIFICATE-----
MIIDLDCCAhSgAwIBAgIBATANBgkqhkiG9w0BAQsFADAvMQwwCgYDVQQKDANVUzIx
ETAPBgNVBAsMCFVTMiBVbml0MQwwCgYDVQQDDANVUzIwHhcNMTkwMTMwMTgwNzUw
WhcNMjAwMTMwMTgwNzUwWjAvMQwwCgYDVQQKDANVUzMxETAPBgNVBAsMCFVTMyBV
bml0MQwwCgYDVQQDDANVUzMwggEiMA0GCSqGSIb3DQEBAQUAA4IBDwAwggEKAoIB
AQCrY+ISR5dmXLsdRwe9nAKHAZ3P7O9wjGXD6mzFiwG8EuxUjNvbrXev/2fP+PlE
08QB9ft5IVQjqZSngJ/ID3UI/HMOTbVkmqcHVjO7OtfShfEtjNb70FQM2Rp0xz8q
GklztWYIG705NTaXF3VR2BBSAJ0hSDnkX8LGlljuNVah5vnI+TdjHdksys69O191
PRNqCumFncy8fkFuhbTJcjeo2Q7/gcuy9c8ykFRKo/bQhdsOgLuRPLIcIESbOVlv
RRSb2O0wyz+3rxKp19GUBUnSfr+f0jt16e1wAFxfDW1UKqBYg6moJ79k7pnxuERz
W8tSjDNa2eVvLdiCknsqktTpAgMBAAGjUzBRMB0GA1UdDgQWBBQTJ/JU2HCV/BMo
LmunO8aForMxTzAfBgNVHSMEGDAWgBRI9u6/jqLdcERwXe8Sz/kfaqqh1jAPBgNV
HRMBAf8EBTADAQH/MA0GCSqGSIb3DQEBCwUAA4IBAQBuolzNKOx1Wp4WZ04t8wcb
E+iO8Fs/SI3fNEMcR5HaSGcZBzIOk2PNXzDTtJ3V2znSc8SgUremGUc3J5rJvPfu
SvbO85xPMLtm+ODtdx/EMpgXEsi+8eURGLwyCSJIWxYo2nNhPekFcq8JFreFMqab
hp16Dkjrp0BgkpoxbI3dJakvejsiwrbUAEc0auZL4Ni15UA1B5iUK78IbYhcNUD2
1u74ZHzeMmHydOmikK1EmH5Fx43ofgVsminvtD8UKDcr3jvHr1RAoZ8NH60pkZwD
SPD/2hxeXj++yxhdmqVL3L8nqUNm1lOyRmAuW5yoPpTr2UR4YDIUYfu6JgivDgx7
-----END CERTIFICATE-----
