Certificate:
    Data:
        Version: 3 (0x2)
        Serial Number: 4 (0x4)
    Signature Algorithm: sha256WithRSAEncryption
        Issuer: O=US3, OU=US3 Unit, CN=US3
        Validity
            Not Before: Jan 29 18:07:51 2019 GMT
            Not After : Jan 30 18:07:51 2024 GMT
        Subject: ST=WA, O=Test, OU=Test Unit, CN=kb, CN=test.com
        Subject Public Key Info:
            Public Key Algorithm: rsaEncryption
                Public-Key: (2048 bit)
                Modulus:
                    00:a8:f3:9a:78:a9:d5:80:f5:a2:6b:cd:4b:5e:26:
                    a3:0d:7e:37:8a:9f:ea:2b:37:fd:5f:79:a1:37:56:
                    50:d6:a4:1d:c6:1e:a2:8a:e1:12:f2:44:de:26:0b:
                    24:07:b8:38:0b:7e:11:fe:c8:3b:7d:bc:db:c1:e3:
                    91:80:7e:33:b3:37:73:60:71:3f:2b:bc:c9:93:df:
                    a0:10:87:41:8f:9c:ee:08:b3:98:11:25:76:83:fa:
                    98:12:75:01:83:57:f9:5f:14:53:50:8a:77:e1:78:
                    c7:da:70:11:a9:2b:68:f8:7e:a9:43:1c:b3:43:18:
                    1d:ac:5d:2b:43:16:cc:d3:f4:8e:37:90:26:df:68:
                    cd:99:e9:67:69:1d:ea:39:1c:8c:5a:80:28:bc:7e:
                    22:2d:d5:80:a3:dd:72:4e:8f:65:40:59:4c:65:86:
                    f4:25:a0:e6:bc:33:14:b7:05:ca:59:cc:66:c5:2f:
                    f4:9d:c5:7a:56:7d:95:7d:ae:bc:00:85:48:de:84:
                    ef:f7:8e:75:38:0a:41:88:8b:8b:a0:9f:ad:12:05:
                    93:fa:6c:7f:63:04:19:a0:e1:0b:bd:fb:f2:8b:00:
                    9b:25:a3:fb:71:49:36:28:4c:c7:84:b1:17:c5:a2:
                    bf:c5:3a:d2:5e:2a:63:a9:aa:67:af:97:32:93:1b:
                    53:8d
                Exponent: 65537 (0x10001)
        X509v3 extensions:
            X509v3 Subject Alternative Name: 
                DNS:kubernetes, DNS:kubernetes.default, DNS:kubernetes.default.svc, DNS:kubernetes.default.svc.cluster.local, DNS:api, DNS:api.infra.caasp.local, DNS:kube, DNS:api, DNS:x1.devenv.caasp.suse.net, DNS:master, DNS:0, DNS:master, DNS:0.infra.caasp.local, DNS:bbbbbbbbbbbbbbbbbbbbbbbbbbbbbbbb, DNS:bbbbbbbbbbbbbbbbbbbbbbbbbbbbbbbb.infra.caasp.local, IP Address:172.24.0.1
    Signature Algorithm: sha256WithRSAEncryption
         81:9b:54:29:14:c1:d5:bb:fd:44:ec:83:b1:c8:c7:e4:67:61:
         6c:56:ca:7f:b5:2a:d3:76:f6:e6:f2:89:e5:eb:51:f1:a9:7d:
         d1:7b:ca:ae:ba:46:3b:89:0e:c0:ff:d4:b7:57:3e:51:04:a3:
         9d:36:a3:56:b6:f4:74:6e:45:63:fc:2e:34:b3:41:db:a7:88:
         1f:56:a7:7d:fd:85:9b:99:70:e9:d0:3e:2c:44:36:48:80:8b:
         86:a3:11:39:0b:2e:a4:21:15:c3:94:83:a3:28:de:24:f5:6b:
         56:52:7f:f4:e7:a0:12:6f:2f:29:6f:f5:67:e1:d3:3d:5b:d2:
         1a:f0:b8:6d:15:d1:98:12:e2:e4:32:29:bd:36:19:24:e0:ca:
         76:8a:bb:29:e5:b4:8f:83:f4:5a:99:f2:4e:92:79:be:16:e4:
         ba:47:2b:05:20:9b:bd:27:3c:77:9f:f1:fa:27:e0:7b:d3:89:
         da:5a:cd:c2:d3:ab:0c:39:da:76:a9:3f:99:9e:60:e5:24:f2:
         41:51:91:ed:c5:e5:5d:1f:a7:d0:87:a3:e0:85:52:eb:91:e8:
         58:9f:ad:64:c2:8a:41:16:53:1f:7c:2d:17:55:91:02:8a:b2:
         9c:45:61:e4:95:fb:49:cb:05:14:4b:9a:0f:c8:61:6b:44:59:
         45:18:95:51
-----BEGIN CERTIFICATE-----
MIIEODCCAyCgAwIBAgIBBDANBgkqhkiG9w0BAQsFADAvMQwwCgYDVQQKDANVUzMx
ETAPBgNVBAsMCFVTMyBVbml0MQwwCgYDVQQDDANVUzMwIhgPMjAxOTAxMjkxODA3
NTFaGA8yMDI0MDEzMDE4MDc1MVowUDELMAkGA1UECAwCV0ExDTALBgNVBAoMBFRl
c3QxEjAQBgNVBAsMCVRlc3QgVW5pdDELMAkGA1UEAwwCa2IxETAPBgNVBAMMCHRl
c3QuY29tMIIBIjANBgkqhkiG9w0BAQEFAAOCAQ8AMIIBCgKCAQEAqPOaeKnVgPWi
a81LXiajDX43ip/qKzf9X3mhN1ZQ1qQdxh6iiuES8kTeJgskB7g4C34R/sg7fbzb
weORgH4zszdzYHE/K7zJk9+gEIdBj5zuCLOYESV2g/qYEnUBg1f5XxRTUIp34XjH
2nARqSto+H6pQxyzQxgdrF0rQxbM0/SON5Am32jNmelnaR3qORyMWoAovH4iLdWA
o91yTo9lQFlMZYb0JaDmvDMUtwXKWcxmxS/0ncV6Vn2Vfa68AIVI3oTv9451OApB
iIuLoJ+tEgWT+mx/YwQZoOELvfvyiwCbJaP7cUk2KEzHhLEXxaK/xTrSXipjqapn
r5cykxtTjQIDAQABo4IBODCCATQwggEwBgNVHREEggEnMIIBI4IKa3ViZXJuZXRl
c4ISa3ViZXJuZXRlcy5kZWZhdWx0ghZrdWJlcm5ldGVzLmRlZmF1bHQuc3ZjgiRr
dWJlcm5ldGVzLmRlZmF1bHQuc3ZjLmNsdXN0ZXIubG9jYWyCA2FwaYIVYXBpLmlu
ZnJhLmNhYXNwLmxvY2FsggRrdWJlggNhcGmCGHgxLmRldmVudi5jYWFzcC5zdXNl
Lm5ldIIGbWFzdGVyggEwggZtYXN0ZXKCEzAuaW5mcmEuY2Fhc3AubG9jYWyCIGJi
YmJiYmJiYmJiYmJiYmJiYmJiYmJiYmJiYmJiYmJigjJiYmJiYmJiYmJiYmJiYmJi
YmJiYmJiYmJiYmJiYmJiYi5pbmZyYS5jYWFzcC5sb2NhbIcErBgAATANBgkqhkiG
9w0BAQsFAAOCAQEAgZtUKRTB1bv9ROyDscjH5GdhbFbKf7Uq03b25vKJ5etR8al9
0XvKrrpGO4kOwP/Ut1c+UQSjnTajVrb0dG5FY/wuNLNB26eIH1anff2Fm5lw6dA+
LEQ2SICLhqMROQsupCEVw5SDoyjeJPVrVlJ/9OegEm8vKW/1Z+HTPVvSGvC4bRXR
mBLi5DIpvTYZJODKdoq7KeW0j4P0WpnyTpJ5vhbkukcrBSCbvSc8d5/x+ifge9OJ
2lrNwtOrDDnadqk/mZ5g5STyQVGR7cXlXR+n0Iej4IVS65HoWJ+tZMKKQRZTH3wt
F1WRAoqynEVh5JX7ScsFFEuaD8hha0RZRRiVUQ==
-----END CERTIFICATE-----
