Certificate:
    Data:
        Version: 3 (0x2)
        Serial Number: 8 (0x8)
    Signature Algorithm: sha1WithRSAEncryption
        Issuer: O=US3, OU=US3 Unit, CN=US3
        Validity
            Not Before: Jan 29 18:07:51 2019 GMT
            Not After : Jan 30 18:07:51 2024 GMT
        Subject: ST=WA, O=Test, OU=Test Unit, CN=sha1, CN=test.com
        Subject Public Key Info:
            Public Key Algorithm: rsaEncryption
                Public-Key: (2048 bit)
                Modulus:
                    00:ca:8b:12:97:71:58:dc:b8:17:0a:df:0e:a6:95:
                    c1:3c:1c:bd:8a:4f:aa:87:8f:b3:33:d1:62:ae:6a:
                    1f:dc:43:1a:fe:33:ea:29:33:38:ad:31:2e:e9:73:
                    7b:1b:85:64:96:2d:32:ed:b0:c6:12:c5:d7:7b:49:
                    40:d3:43:ab:4a:7f:d6:2a:c9:5d:a5:86:3e:f9:cb:
                    c6:1f:fe:23:dc:7c:c2:66:40:a1:2e:28:c2:f7:6d:
                    76:86:9d:1f:1f:17:cc:67:74:82:02:0e:76:db:22:
                    df:f4:6d:3f:64:dc:c1:8b:54:9d:e2:3c:d6:c4:38:
                    50:bc:42:d4:b8:8a:8a:9f:c6:29:78:df:f7:1a:14:
                    76:f7:51:e1:00:0f:89:5f:7a:22:0f:c2:cf:7c:c9:
                    dd:4c:62:71:05:e7:8c:ed:7a:55:c6:22:2d:43:53:
                    c6:12:2f:70:e5:e4:a3:94:01:2f:4f:e7:7d:95:f0:
                    15:7d:73:d2:e1:70:db:6f:68:c3:dd:fe:85:ac:8c:
                    3a:31:aa:19:97:73:27:8f:16:38:cd:f0:b1:47:4e:
                    69:14:9d:3b:28:7e:3d:74:6e:7b:27:b9:2e:cd:7e:
                    8d:35:26:cd:45:6a:28:57:f0:d1:ad:55:4f:58:cb:
                    3e:8d:d7:64:ca:79:0d:0f:fa:da:c7:ca:7c:25:00:
                    3c:c9
                Exponent: 65537 (0x10001)
        X509v3 extensions:
            X509v3 Subject Alternative Name: 
                DNS:admin.devenv.caasp.suse.net, DNS:admin, DNS:admin.infra.caasp.local, DNS:aaaaaaaaaaaaaaaaaaaaaaaaaaaaaaaa, DNS:aaaaaaaaaaaaaaaaaaaaaaaaaaaaaaaa.infra.caasp.local, DNS:testdomain.com, IP Address:10.17.1.0
    Signature Algorithm: sha1WithRSAEncryption
         94:34:92:c1:41:69:ad:93:c0:d2:3e:1c:8a:e1:10:17:68:3b:
         1e:5c:78:50:31:1f:90:bf:8b:84:ea:81:14:07:51:de:06:64:
         a9:bf:bd:93:5e:ab:0f:21:b9:d2:8c:07:c3:0a:34:d2:ab:7b:
         08:25:51:94:4a:31:3f:a1:27:44:e3:e5:47:cf:65:76:64:46:
         05:82:b5:9c:73:70:99:55:0a:f8:11:8d:f3:c1:48:17:ad:37:
         47:79:4f:9e:0b:6d:2a:fc:77:1f:be:42:7d:62:a0:72:ff:41:
         73:d2:fe:0c:fa:d9:3a:78:cf:e7:23:4a:6a:a9:56:13:25:cc:
         d6:b0:69:a2:2e:fc:34:d1:c1:38:41:d8:a7:13:33:b0:09:2d:
         d2:cd:a8:bf:19:7d:a7:41:50:bc:50:f1:41:be:01:11:20:ca:
         ae:61:e7:ac:91:c5:eb:8f:a0:20:69:6b:0a:2a:ca:81:88:38:
         07:c9:f4:f4:b7:79:59:cf:d2:4c:43:18:fd:01:f2:23:f1:76:
         cf:d0:57:4b:24:98:d7:60:1c:23:b0:c3:23:26:f3:4c:0b:17:
         f8:f0:bb:2f:72:fc:1f:d8:dc:89:e3:01:99:f5:04:bf:d1:d1:
         a4:87:9a:60:61:0e:ef:4c:b5:c8:ad:85:82:11:ad:0e:34:69:
         b3:dc:6f:2a
-----BEGIN CERTIFICATE-----
MIIDuzCCAqOgAwIBAgIBCDANBgkqhkiG9w0BAQUFADAvMQwwCgYDVQQKDANVUzMx
ETAPBgNVBAsMCFVTMyBVbml0MQwwCgYDVQQDDANVUzMwIhgPMjAxOTAxMjkxODA3
NTFaGA8yMDI0MDEzMDE4MDc1MVowUjELMAkGA1UECAwCV0ExDTALBgNVBAoMBFRl
c3QxEjAQBgNVBAsMCVRlc3QgVW5pdDENMAsGA1UEAwwEc2hhMTERMA8GA1UEAwwI
dGVzdC5jb20wggEiMA0GCSqGSIb3DQEBAQUAA4IBDwAwggEKAoIBAQDKixKXcVjc
uBcK3w6mlcE8HL2KT6qHj7Mz0WKuah/cQxr+M+opMzitMS7pc3sbhWSWLTLtsMYS
xdd7SUDTQ6tKf9YqyV2lhj75y8Yf/iPcfMJmQKEuKML3bXaGnR8fF8xndIICDnbb
It/0bT9k3MGLVJ3iPNbEOFC8QtS4ioqfxil43/caFHb3UeEAD4lfeiIPws98yd1M
YnEF54ztelXGIi1DU8YSL3Dl5KOUAS9P532V8BV9c9LhcNtvaMPd/oWsjDoxqhmX
cyePFjjN8LFHTmkUnTsofj10bnsnuS7Nfo01Js1FaihX8NGtVU9Yyz6N12TKeQ0P
+trHynwlADzJAgMBAAGjgbowgbcwgbQGA1UdEQSBrDCBqYIbYWRtaW4uZGV2ZW52
LmNhYXNwLnN1c2UubmV0ggVhZG1pboIXYWRtaW4uaW5mcmEuY2Fhc3AubG9jYWyC
IGFhYWFhYWFhYWFhYWFhYWFhYWFhYWFhYWFhYWFhYWFhgjJhYWFhYWFhYWFhYWFh
YWFhYWFhYWFhYWFhYWFhYWFhYS5pbmZyYS5jYWFzcC5sb2NhbIIOdGVzdGRvbWFp
bi5jb22HBAoRAQAwDQYJKoZIhvcNAQEFBQADggEBAJQ0ksFBaa2TwNI+HIrhEBdo
Ox5ceFAxH5C/i4TqgRQHUd4GZKm/vZNeqw8hudKMB8MKNNKrewglUZRKMT+hJ0Tj
5UfPZXZkRgWCtZxzcJlVCvgRjfPBSBetN0d5T54LbSr8dx++Qn1ioHL/QXPS/gz6
2Tp4z+cjSmqpVhMlzNawaaIu/DTRwThB2KcTM7AJLdLNqL8ZfadBULxQ8UG+AREg
yq5h56yRxeuPoCBpawoqyoGIOAfJ9PS3eVnP0kxDGP0B8iPxds/QV0skmNdgHCOw
wyMm80wLF/jwuy9y/B/Y3InjAZn1BL/R0aSHmmBhDu9MtcithYIRrQ40abPcbyo=
-----END CERTIFICATE-----
