Certificate:
    Data:
        Version: 3 (0x2)
        Serial Number: 8 (0x8)
    Signature Algorithm: sha1WithRSAEncryption
        Issuer: O=US3, OU=US3 Unit, CN=US3
        Validity
            Not Before: Jan 29 23:59:03 2019 GMT
            Not After : Jan 30 23:59:03 2024 GMT
        Subject: ST=WA, O=Test, OU=Test Unit, CN=sha1, CN=test.com
        Subject Public Key Info:
            Public Key Algorithm: rsaEncryption
                Public-Key: (2048 bit)
                Modulus:
                    00:b8:b0:08:77:fc:95:e2:15:09:d4:0b:99:a7:40:
                    62:ec:9e:28:44:74:dc:b4:33:03:f3:69:20:e9:bf:
                    d5:6d:28:6c:ae:1e:f3:10:9c:a2:cf:37:bc:92:5a:
                    db:a5:40:7e:4e:bd:bf:26:9a:e6:31:6d:85:1b:29:
                    99:e2:99:e4:92:3e:bd:bb:cb:98:48:61:7e:4d:b5:
                    bb:9e:e4:83:b1:6b:f4:2d:cf:55:79:92:a4:25:38:
                    a2:06:e9:fb:fe:e6:5a:ab:ed:9e:40:c6:04:ab:a6:
                    cc:fd:d8:40:31:28:ad:b3:cd:76:a5:88:6a:f2:b6:
                    ea:6c:a7:4e:18:20:fd:54:1a:a0:8f:cb:ab:61:a6:
                    6a:81:43:5d:87:7f:ca:a7:eb:91:9e:0e:07:0f:04:
                    59:c7:ef:a9:1e:75:30:d0:38:21:23:7d:93:a0:de:
                    35:21:6f:e3:16:f7:5d:f0:93:91:e6:0c:dd:8d:25:
                    c2:69:5c:3f:1a:00:4c:06:e2:a4:55:a0:04:6e:f7:
                    36:74:d9:97:b3:3c:b5:ff:3e:08:cc:78:68:ab:fe:
                    b1:a4:c6:59:07:a6:a7:6b:9a:08:4a:ff:03:6b:be:
                    85:95:2b:ee:72:f9:6f:ad:ad:09:b6:70:1d:73:b1:
                    8b:12:0e:25:13:af:e6:86:97:1b:a2:52:72:44:6e:
                    c2:07
                Exponent: 65537 (0x10001)
        X509v3 extensions:
            X509v3 Subject Alternative Name: 
                DNS:admin.devenv.caasp.suse.net, DNS:admin, DNS:admin.infra.caasp.local, DNS:aaaaaaaaaaaaaaaaaaaaaaaaaaaaaaaa, DNS:aaaaaaaaaaaaaaaaaaaaaaaaaaaaaaaa.infra.caasp.local, DNS:testdomain.com, IP Address:10.17.1.0
    Signature Algorithm: sha1WithRSAEncryption
         74:c5:48:a8:3f:0c:1d:bf:18:c3:d0:7b:a0:b0:c5:88:ff:e7:
         f3:34:eb:97:0b:f2:95:cf:47:97:d6:a7:29:c7:ae:3b:a9:29:
         52:b2:8c:3c:86:6c:45:98:84:72:ee:3b:93:28:53:90:5b:10:
         18:c7:94:80:6c:00:38:d4:02:4d:17:a6:0b:ad:6c:1f:7e:4b:
         48:c0:0f:96:eb:0a:06:a3:cb:13:03:54:a1:88:5f:5e:85:8b:
         0f:9d:9d:c0:93:2f:bf:cd:49:d5:2d:2d:a2:c2:df:5f:cb:10:
         23:c1:5f:ca:79:08:a3:3e:71:0f:13:b0:19:3f:b2:d6:f6:02:
         a8:cb:30:17:e3:79:01:a4:a2:cd:2c:f6:6e:52:60:74:b6:cb:
         29:73:a0:e9:4f:5b:c9:29:b6:0d:8b:4f:08:3d:f8:4a:fd:ca:
         e8:fa:6f:cd:13:ed:bd:b1:cb:82:74:83:53:0e:d4:47:23:60:
         c9:08:f3:85:a1:94:55:65:ff:6c:bc:04:47:f3:f5:3c:26:5e:
         82:91:57:b7:e8:89:08:f0:67:24:09:30:cc:11:cb:53:0c:be:
         83:6a:d2:2f:3f:cd:11:34:93:7c:b3:24:ca:a1:fc:da:74:80:
         89:b2:25:52:97:b6:0c:0d:eb:8c:ff:aa:aa:52:42:ca:41:b0:
         6f:a6:d4:58
-----BEGIN CERTIFICATE-----
MIIDuzCCAqOgAwIBAgIBCDANBgkqhkiG9w0BAQUFADAvMQwwCgYDVQQKDANVUzMx
ETAPBgNVBAsMCFVTMyBVbml0MQwwCgYDVQQDDANVUzMwIhgPMjAxOTAxMjkyMzU5
MDNaGA8yMDI0MDEzMDIzNTkwM1owUjELMAkGA1UECAwCV0ExDTALBgNVBAoMBFRl
c3QxEjAQBgNVBAsMCVRlc3QgVW5pdDENMAsGA1UEAwwEc2hhMTERMA8GA1UEAwwI
dGVzdC5jb20wggEiMA0GCSqGSIb3DQEBAQUAA4IBDwAwggEKAoIBAQC4sAh3/JXi
FQnUC5mnQGLsnihEdNy0MwPzaSDpv9VtKGyuHvMQnKLPN7ySWtulQH5Ovb8mmuYx
bYUbKZnimeSSPr27y5hIYX5Ntbue5IOxa/Qtz1V5kqQlOKIG6fv+5lqr7Z5AxgSr
psz92EAxKK2zzXaliGrytupsp04YIP1UGqCPy6thpmqBQ12Hf8qn65GeDgcPBFnH
76kedTDQOCEjfZOg3jUhb+MW913wk5HmDN2NJcJpXD8aAEwG4qRVoARu9zZ02Zez
PLX/PgjMeGir/rGkxlkHpqdrmghK/wNrvoWVK+5y+W+trQm2cB1zsYsSDiUTr+aG
lxuiUnJEbsIHAgMBAAGjgbowgbcwgbQGA1UdEQSBrDCBqYIbYWRtaW4uZGV2ZW52
LmNhYXNwLnN1c2UubmV0ggVhZG1pboIXYWRtaW4uaW5mcmEuY2Fhc3AubG9jYWyC
IGFhYWFhYWFhYWFhYWFhYWFhYWFhYWFhYWFhYWFhYWFhgjJhYWFhYWFhYWFhYWFh
YWFhYWFhYWFhYWFhYWFhYWFhYS5pbmZyYS5jYWFzcC5sb2NhbIIOdGVzdGRvbWFp
bi5jb22HBAoRAQAwDQYJKoZIhvcNAQEFBQADggEBAHTFSKg/DB2/GMPQe6CwxYj/
5/M065cL8pXPR5fWpynHrjupKVKyjDyGbEWYhHLuO5MoU5BbEBjHlIBsADjUAk0X
pgutbB9+S0jAD5brCgajyxMDVKGIX16Fiw+dncCTL7/NSdUtLaLC31/LECPBX8p5
CKM+cQ8TsBk/stb2AqjLMBfjeQGkos0s9m5SYHS2yylzoOlPW8kptg2LTwg9+Er9
yuj6b80T7b2xy4J0g1MO1EcjYMkI84WhlFVl/2y8BEfz9TwmXoKRV7foiQjwZyQJ
MMwRy1MMvoNq0i8/zRE0k3yzJMqh/Np0gImyJVKXtgwN64z/qqpSQspBsG+m1Fg=
-----END CERTIFICATE-----
