Certificate:
    Data:
        Version: 3 (0x2)
        Serial Number: 2 (0x2)
    Signature Algorithm: sha256WithRSAEncryption
        Issuer: O=US3, OU=US3 Unit, CN=US3
        Validity
            Not Before: Jan 29 18:07:50 2019 GMT
            Not After : Jan 30 18:07:50 2024 GMT
        Subject: ST=WA, O=Test, OU=Test Unit, CN=vb, CN=test.com
        Subject Public Key Info:
            Public Key Algorithm: rsaEncryption
                Public-Key: (2048 bit)
                Modulus:
                    00:e1:79:84:4c:9f:41:e6:17:7e:95:b0:89:74:32:
                    eb:51:ce:ef:3d:e9:f6:80:c4:37:38:a0:f1:04:4a:
                    94:39:07:6d:33:12:3c:fd:0c:e1:3f:7c:4d:f8:99:
                    f2:ac:d0:c5:29:e7:94:f9:4a:04:9c:23:49:49:07:
                    f4:60:87:67:c4:f1:f0:c1:75:10:df:57:7a:ef:3d:
                    c4:a6:2c:67:91:1b:a6:7a:2e:26:a9:15:5d:75:b3:
                    12:79:df:0c:e0:c1:14:8e:3a:8d:eb:86:84:f9:79:
                    72:21:00:16:01:ce:db:03:0e:75:6a:f4:99:50:02:
                    2d:68:c4:d1:47:2d:fb:ee:df:22:c1:41:6b:70:36:
                    bc:89:5d:f6:4c:1b:68:c5:0d:9f:13:7a:a1:bf:12:
                    50:d3:ec:e5:b5:f5:a7:0d:7d:c2:0c:48:58:97:b7:
                    d0:a4:1f:47:27:b5:57:1c:ea:24:97:63:e1:73:13:
                    52:34:97:05:0f:87:00:27:4e:fa:b9:56:4e:59:d3:
                    2e:d6:a6:78:81:5c:5d:e6:d4:f9:01:1b:0f:56:70:
                    a3:4f:cc:c2:d3:62:20:7e:cc:53:d1:a5:6b:86:18:
                    00:c0:64:1b:8c:a1:32:c6:04:60:23:de:8f:b9:21:
                    80:d9:c9:72:8d:83:c8:b4:e0:30:3a:0a:fb:91:c4:
                    b8:85
                Exponent: 65537 (0x10001)
        X509v3 extensions:
            X509v3 Subject Alternative Name: 
                DNS:admin.devenv.caasp.suse.net, DNS:admin, DNS:admin.infra.caasp.local, DNS:aaaaaaaaaaaaaaaaaaaaaaaaaaaaaaaa, DNS:aaaaaaaaaaaaaaaaaaaaaaaaaaaaaaaa.infra.caasp.local, DNS:testdomain.com, IP Address:10.17.1.0
    Signature Algorithm: sha256WithRSAEncryption
         0f:c3:ff:6e:72:71:8d:cd:46:8c:48:88:6a:1c:5f:50:9d:08:
         fb:33:4d:8b:a3:cf:52:fe:d0:58:0c:c2:85:51:e7:fd:b7:82:
         88:ed:08:72:29:c6:5e:7c:5b:09:44:d0:62:c0:a6:f7:24:bc:
         b5:f2:d3:52:63:54:7f:95:c7:9a:f5:cd:f0:66:89:5e:4b:f5:
         ff:ac:a8:78:6a:d6:aa:dd:ab:cd:e0:17:a8:aa:62:60:15:a3:
         fc:83:8e:ec:c6:9a:74:a8:a6:03:55:4a:05:d8:2b:37:34:17:
         45:61:b6:39:bc:11:8c:49:1d:98:dd:27:6e:4a:dd:d2:e3:4f:
         db:37:00:9b:53:c6:c1:ea:60:a0:dd:35:4e:4e:64:b8:cc:f5:
         88:b1:dc:65:68:36:df:91:2f:10:b1:95:99:32:4a:84:2e:c7:
         3e:93:23:34:50:84:53:30:ef:c1:d8:f1:10:d6:2a:29:75:8d:
         c3:fd:4c:47:dd:00:48:05:97:05:3b:fb:07:d5:f0:6e:cc:dc:
         36:e7:0c:d3:9c:c1:0d:e7:a1:1b:6c:20:72:c8:f5:e6:8c:b0:
         47:5b:6a:95:63:d7:e8:25:b0:b7:98:c1:09:fc:fd:59:c1:4b:
         6e:ec:f4:f7:95:80:6e:08:fe:9c:ba:47:2c:b7:00:55:9e:40:
         67:e8:f9:95
-----BEGIN CERTIFICATE-----
MIIDuTCCAqGgAwIBAgIBAjANBgkqhkiG9w0BAQsFADAvMQwwCgYDVQQKDANVUzMx
ETAPBgNVBAsMCFVTMyBVbml0MQwwCgYDVQQDDANVUzMwIhgPMjAxOTAxMjkxODA3
NTBaGA8yMDI0MDEzMDE4MDc1MFowUDELMAkGA1UECAwCV0ExDTALBgNVBAoMBFRl
c3QxEjAQBgNVBAsMCVRlc3QgVW5pdDELMAkGA1UEAwwCdmIxETAPBgNVBAMMCHRl
c3QuY29tMIIBIjANBgkqhkiG9w0BAQEFAAOCAQ8AMIIBCgKCAQEA4XmETJ9B5hd+
lbCJdDLrUc7vPen2gMQ3OKDxBEqUOQdtMxI8/QzhP3xN+JnyrNDFKeeU+UoEnCNJ
SQf0YIdnxPHwwXUQ31d67z3EpixnkRumei4mqRVddbMSed8M4MEUjjqN64aE+Xly
IQAWAc7bAw51avSZUAItaMTRRy377t8iwUFrcDa8iV32TBtoxQ2fE3qhvxJQ0+zl
tfWnDX3CDEhYl7fQpB9HJ7VXHOokl2PhcxNSNJcFD4cAJ076uVZOWdMu1qZ4gVxd
5tT5ARsPVnCjT8zC02IgfsxT0aVrhhgAwGQbjKEyxgRgI96PuSGA2clyjYPItOAw
Ogr7kcS4hQIDAQABo4G6MIG3MIG0BgNVHREEgawwgamCG2FkbWluLmRldmVudi5j
YWFzcC5zdXNlLm5ldIIFYWRtaW6CF2FkbWluLmluZnJhLmNhYXNwLmxvY2FsgiBh
YWFhYWFhYWFhYWFhYWFhYWFhYWFhYWFhYWFhYWFhYYIyYWFhYWFhYWFhYWFhYWFh
YWFhYWFhYWFhYWFhYWFhYWEuaW5mcmEuY2Fhc3AubG9jYWyCDnRlc3Rkb21haW4u
Y29thwQKEQEAMA0GCSqGSIb3DQEBCwUAA4IBAQAPw/9ucnGNzUaMSIhqHF9QnQj7
M02Lo89S/tBYDMKFUef9t4KI7QhyKcZefFsJRNBiwKb3JLy18tNSY1R/lcea9c3w
ZoleS/X/rKh4ataq3avN4BeoqmJgFaP8g47sxpp0qKYDVUoF2Cs3NBdFYbY5vBGM
SR2Y3SduSt3S40/bNwCbU8bB6mCg3TVOTmS4zPWIsdxlaDbfkS8QsZWZMkqELsc+
kyM0UIRTMO/B2PEQ1iopdY3D/UxH3QBIBZcFO/sH1fBuzNw25wzTnMEN56EbbCBy
yPXmjLBHW2qVY9foJbC3mMEJ/P1ZwUtu7PT3lYBuCP6cukcstwBVnkBn6PmV
-----END CERTIFICATE-----
