Certificate:
    Data:
        Version: 3 (0x2)
        Serial Number: 1 (0x1)
    Signature Algorithm: sha256WithRSAEncryption
        Issuer: O=US3, OU=US3 Unit, CN=US3
        Validity
            Not Before: Jan 29 23:59:02 2019 GMT
            Not After : Jan 30 23:59:02 2024 GMT
        Subject: ST=WA, O=Test, OU=Test Unit, CN=va, CN=test.com
        Subject Public Key Info:
            Public Key Algorithm: rsaEncryption
                Public-Key: (2048 bit)
                Modulus:
                    00:9d:58:95:5c:fd:08:35:b2:b0:c1:52:ea:2c:7c:
                    a1:5f:bb:ea:35:ad:f7:62:8b:f4:85:93:ae:4c:69:
                    39:f7:05:9c:cc:b1:2f:23:43:8d:78:8c:9b:8b:f2:
                    fb:93:4c:db:cc:7e:58:c3:e6:93:40:ed:8e:90:0c:
                    5b:e3:60:52:61:9d:54:03:26:bb:47:4e:69:27:78:
                    45:e9:0a:c5:34:ce:ff:a1:34:17:87:92:e1:a8:e9:
                    81:a0:e9:42:44:03:a8:23:bc:33:d7:f0:5f:e4:60:
                    68:12:f4:63:d9:4b:90:7d:b8:e3:22:1d:7e:22:63:
                    8b:43:9b:8a:fc:5b:86:1c:dc:6a:2e:b3:56:71:e8:
                    27:de:46:69:84:00:69:96:77:98:a7:bf:97:1f:50:
                    b5:79:fe:d6:37:22:1a:b0:67:df:05:ef:d2:7b:49:
                    0d:1b:87:bb:ff:a3:ad:b8:ae:79:75:d9:2e:7b:73:
                    d2:82:f7:3e:21:c2:64:fe:52:42:b6:8c:d1:4f:51:
                    8f:1f:90:bb:44:f2:a9:60:41:24:f0:fb:26:1b:65:
                    1b:23:5e:2a:51:29:7b:af:56:9c:82:17:3b:e4:a0:
                    de:3e:51:4d:62:5b:e4:d8:bd:74:ce:a5:7f:57:7c:
                    ad:94:c4:6d:d4:36:75:7f:e7:4b:48:89:58:87:3d:
                    96:81
                Exponent: 65537 (0x10001)
        X509v3 extensions:
            X509v3 Subject Alternative Name: 
                DNS:admin.devenv.caasp.suse.net, DNS:admin, DNS:admin.infra.caasp.local, DNS:aaaaaaaaaaaaaaaaaaaaaaaaaaaaaaaa, DNS:aaaaaaaaaaaaaaaaaaaaaaaaaaaaaaaa.infra.caasp.local, DNS:testdomain.com, IP Address:10.17.1.0
    Signature Algorithm: sha256WithRSAEncryption
         a3:1a:14:b3:b1:9f:a2:f8:8f:77:32:9a:08:e9:1d:20:e3:45:
         69:a7:8e:ea:80:a7:d4:b0:77:fe:9a:13:01:c9:72:9a:35:d7:
         2a:dc:fd:7d:eb:48:13:45:bb:ce:b9:5b:37:a5:f0:14:b9:99:
         bb:ad:79:25:34:78:aa:a9:73:7a:63:6d:11:77:4e:8f:97:17:
         78:1a:f1:ab:d9:35:19:be:84:ee:95:78:a6:80:07:3f:af:18:
         3d:5e:4c:3d:16:72:40:49:6a:f5:de:9b:2c:1a:3c:31:fe:04:
         60:c7:69:8e:c2:46:08:8f:20:c9:e9:e7:39:c9:47:53:32:ee:
         8c:63:c6:28:89:05:6a:72:39:1e:e2:65:01:86:61:3d:ba:b1:
         6a:d2:b3:78:0e:36:31:30:35:a7:d5:30:cb:27:34:f8:21:0b:
         38:8e:81:6f:9e:19:e3:e5:00:d4:c6:f5:6b:9f:21:9b:ed:80:
         97:4f:f2:a9:67:a1:46:0e:41:99:65:47:ba:19:e1:4d:89:b0:
         7f:d0:6e:11:a9:7d:e2:ab:9a:4d:ab:3f:2a:f3:c5:f0:a3:8e:
         b4:44:17:37:78:a6:a4:f3:34:2b:d5:d8:4e:18:fd:44:aa:1b:
         42:9e:9e:e0:0a:e8:5b:bc:db:a5:0e:bc:73:e1:c9:5d:69:75:
         cc:03:93:71
-----BEGIN CERTIFICATE-----
MIIDuTCCAqGgAwIBAgIBATANBgkqhkiG9w0BAQsFADAvMQwwCgYDVQQKDANVUzMx
ETAPBgNVBAsMCFVTMyBVbml0MQwwCgYDVQQDDANVUzMwIhgPMjAxOTAxMjkyMzU5
MDJaGA8yMDI0MDEzMDIzNTkwMlowUDELMAkGA1UECAwCV0ExDTALBgNVBAoMBFRl
c3QxEjAQBgNVBAsMCVRlc3QgVW5pdDELMAkGA1UEAwwCdmExETAPBgNVBAMMCHRl
c3QuY29tMIIBIjANBgkqhkiG9w0BAQEFAAOCAQ8AMIIBCgKCAQEAnViVXP0INbKw
wVLqLHyhX7vqNa33Yov0hZOuTGk59wWczLEvI0ONeIybi/L7k0zbzH5Yw+aTQO2O
kAxb42BSYZ1UAya7R05pJ3hF6QrFNM7/oTQXh5LhqOmBoOlCRAOoI7wz1/Bf5GBo
EvRj2UuQfbjjIh1+ImOLQ5uK/FuGHNxqLrNWcegn3kZphABplneYp7+XH1C1ef7W
NyIasGffBe/Se0kNG4e7/6OtuK55ddkue3PSgvc+IcJk/lJCtozRT1GPH5C7RPKp
YEEk8PsmG2UbI14qUSl7r1acghc75KDePlFNYlvk2L10zqV/V3ytlMRt1DZ1f+dL
SIlYhz2WgQIDAQABo4G6MIG3MIG0BgNVHREEgawwgamCG2FkbWluLmRldmVudi5j
YWFzcC5zdXNlLm5ldIIFYWRtaW6CF2FkbWluLmluZnJhLmNhYXNwLmxvY2FsgiBh
YWFhYWFhYWFhYWFhYWFhYWFhYWFhYWFhYWFhYWFhYYIyYWFhYWFhYWFhYWFhYWFh
YWFhYWFhYWFhYWFhYWFhYWEuaW5mcmEuY2Fhc3AubG9jYWyCDnRlc3Rkb21haW4u
Y29thwQKEQEAMA0GCSqGSIb3DQEBCwUAA4IBAQCjGhSzsZ+i+I93MpoI6R0g40Vp
p47qgKfUsHf+mhMByXKaNdcq3P1960gTRbvOuVs3pfAUuZm7rXklNHiqqXN6Y20R
d06Plxd4GvGr2TUZvoTulXimgAc/rxg9Xkw9FnJASWr13pssGjwx/gRgx2mOwkYI
jyDJ6ec5yUdTMu6MY8YoiQVqcjke4mUBhmE9urFq0rN4DjYxMDWn1TDLJzT4IQs4
joFvnhnj5QDUxvVrnyGb7YCXT/KpZ6FGDkGZZUe6GeFNibB/0G4RqX3iq5pNqz8q
88Xwo460RBc3eKak8zQr1dhOGP1EqhtCnp7gCuhbvNulDrxz4cldaXXMA5Nx
-----END CERTIFICATE-----
